; Function Attrs: nounwind uwtable
define dso_local range(i32 -2, 1) i32 @tmpfile_delete(ptr noundef captures(none) initializes((0, 16)) %0) local_unnamed_addr #0 {
  %2 = alloca ptr, align 8
  call void @llvm.lifetime.start.p0(i64 8, ptr nonnull %2) #5
  %3 = getelementptr inbounds nuw i8, ptr %0, i64 16
  %4 = load ptr, ptr %3, align 8, !tbaa !20
  store ptr %4, ptr %2, align 8, !tbaa !21
  %5 = call i32 @delete_tempfile(ptr noundef nonnull %2) #5
  store ptr null, ptr %0, align 8, !tbaa !23
  %.sroa.2.0..sroa_idx = getelementptr inbounds nuw i8, ptr %0, i64 8
  store i32 -1, ptr %.sroa.2.0..sroa_idx, align 8, !tbaa !24
  %.sroa.3.0..sroa_idx = getelementptr inbounds nuw i8, ptr %0, i64 12
  call void @llvm.memset.p0.i64(ptr noundef nonnull align 4 dereferenceable(12) %.sroa.3.0..sroa_idx, i8 0, i64 12, i1 false)
  %6 = icmp slt i32 %5, 0
  %. = select i1 %6, i32 -2, i32 0
  call void @llvm.lifetime.end.p0(i64 8, ptr nonnull %2) #5
  ret i32 %.
}